; Function Attrs: nounwind uwtable
define range(i32 -1, 1) i32 @H5PTcreate_index(i64 noundef %0) local_unnamed_addr #0 {
  %2 = load i32, ptr @H5PT_ptable_id_type, align 4, !tbaa !3
  %3 = tail call ptr @H5Iobject_verify(i64 noundef %0, i32 noundef %2) #7
  %4 = icmp eq ptr %3, null
  br i1 %4, label %7, label %5

5:                                                ; preds = %1
  %6 = getelementptr inbounds nuw i8, ptr %3, i64 16
  store i64 0, ptr %6, align 8, !tbaa !20
  br label %7

7:                                                ; preds = %1, %5
  %.0 = phi i32 [ 0, %5 ], [ -1, %1 ]
  ret i32 %.0
}